; Function Attrs: mustprogress nounwind uwtable
define hidden void @_ZN27JvmtiVTMSTransitionDisabler18VTMS_unmount_beginEP8_jobjectb(ptr noundef %0, i1 noundef zeroext %1) local_unnamed_addr #0 align 2 {
  %3 = tail call align 8 ptr @llvm.threadlocal.address.p0(ptr align 8 @_ZN6Thread12_thr_currentE)
  %4 = load ptr, ptr %3, align 8
  tail call void @_ZN27JvmtiVTMSTransitionDisabler21start_VTMS_transitionEP8_jobjectb(ptr noundef %0, i1 zeroext poison)
  br i1 %1, label %8, label %5

5:                                                ; preds = %2
  %6 = tail call noundef ptr @_ZNK10JavaThread9threadObjEv(ptr noundef nonnull align 8 dereferenceable(1800) %4) #13
  %7 = tail call noundef ptr @_ZN10JavaThread31rebind_to_jvmti_thread_state_ofEP7oopDesc(ptr noundef nonnull align 8 dereferenceable(1800) %4, ptr noundef %6) #13
  br label %8

8:                                                ; preds = %5, %2
  ret void
}